target datalayout = "e-m:e-p270:32:32-p271:32:32-p272:64:64-i64:64-i128:128-f80:128-n8:16:32:64-S128"
target triple = "x86_64-pc-linux-gnu"

%struct.anon = type { double, double }
%struct._generic_N_Vector = type { ptr, ptr, ptr }
%struct._N_VectorContent_Serial = type { i64, i32, ptr }

; Function Attrs: nounwind uwtable
define internal i32 @f(double noundef %0, ptr noundef %1, ptr noundef %2, ptr noundef %3) #0 {
  %5 = alloca double, align 8
  %6 = alloca ptr, align 8
  %7 = alloca ptr, align 8
  %8 = alloca ptr, align 8
  %9 = alloca double, align 8
  %10 = alloca double, align 8
  %11 = alloca double, align 8
  %12 = alloca ptr, align 8
  %13 = alloca double, align 8
  %14 = alloca double, align 8
  store double %0, ptr %5, align 8, !tbaa !24
  store ptr %1, ptr %6, align 8, !tbaa !12
  store ptr %2, ptr %7, align 8, !tbaa !12
  store ptr %3, ptr %8, align 8, !tbaa !11
  call void @llvm.lifetime.start.p0(i64 8, ptr %9) #6
  call void @llvm.lifetime.start.p0(i64 8, ptr %10) #6
  call void @llvm.lifetime.start.p0(i64 8, ptr %11) #6
  call void @llvm.lifetime.start.p0(i64 8, ptr %12) #6
  call void @llvm.lifetime.start.p0(i64 8, ptr %13) #6
  call void @llvm.lifetime.start.p0(i64 8, ptr %14) #6
  %15 = load ptr, ptr %8, align 8, !tbaa !11
  store ptr %15, ptr %12, align 8, !tbaa !11
  %16 = load ptr, ptr %12, align 8, !tbaa !11
  %17 = getelementptr inbounds nuw %struct.anon, ptr %16, i32 0, i32 0
  %18 = load double, ptr %17, align 8, !tbaa !18
  store double %18, ptr %13, align 8, !tbaa !24
  %19 = load ptr, ptr %12, align 8, !tbaa !11
  %20 = getelementptr inbounds nuw %struct.anon, ptr %19, i32 0, i32 1
  %21 = load double, ptr %20, align 8, !tbaa !21
  store double %21, ptr %14, align 8, !tbaa !24
  %22 = load ptr, ptr %6, align 8, !tbaa !12
  %23 = getelementptr inbounds nuw %struct._generic_N_Vector, ptr %22, i32 0, i32 0
  %24 = load ptr, ptr %23, align 8, !tbaa !29
  %25 = getelementptr inbounds nuw %struct._N_VectorContent_Serial, ptr %24, i32 0, i32 2
  %26 = load ptr, ptr %25, align 8, !tbaa !32
  %27 = getelementptr inbounds double, ptr %26, i64 0
  %28 = load double, ptr %27, align 8, !tbaa !24
  store double %28, ptr %9, align 8, !tbaa !24
  %29 = load ptr, ptr %6, align 8, !tbaa !12
  %30 = getelementptr inbounds nuw %struct._generic_N_Vector, ptr %29, i32 0, i32 0
  %31 = load ptr, ptr %30, align 8, !tbaa !29
  %32 = getelementptr inbounds nuw %struct._N_VectorContent_Serial, ptr %31, i32 0, i32 2
  %33 = load ptr, ptr %32, align 8, !tbaa !32
  %34 = getelementptr inbounds double, ptr %33, i64 1
  %35 = load double, ptr %34, align 8, !tbaa !24
  store double %35, ptr %10, align 8, !tbaa !24
  %36 = load ptr, ptr %6, align 8, !tbaa !12
  %37 = getelementptr inbounds nuw %struct._generic_N_Vector, ptr %36, i32 0, i32 0
  %38 = load ptr, ptr %37, align 8, !tbaa !29
  %39 = getelementptr inbounds nuw %struct._N_VectorContent_Serial, ptr %38, i32 0, i32 2
  %40 = load ptr, ptr %39, align 8, !tbaa !32
  %41 = getelementptr inbounds double, ptr %40, i64 2
  %42 = load double, ptr %41, align 8, !tbaa !24
  store double %42, ptr %11, align 8, !tbaa !24
  %43 = load double, ptr %13, align 8, !tbaa !24
  %44 = fneg double %43
  %45 = load double, ptr %9, align 8, !tbaa !24
  %46 = fmul double %44, %45
  %47 = load double, ptr %9, align 8, !tbaa !24
  %48 = load double, ptr %11, align 8, !tbaa !24
  %49 = fneg double %48
  %50 = call double @llvm.fmuladd.f64(double %46, double %47, double %49)
  %51 = load ptr, ptr %7, align 8, !tbaa !12
  %52 = getelementptr inbounds nuw %struct._generic_N_Vector, ptr %51, i32 0, i32 0
  %53 = load ptr, ptr %52, align 8, !tbaa !29
  %54 = getelementptr inbounds nuw %struct._N_VectorContent_Serial, ptr %53, i32 0, i32 2
  %55 = load ptr, ptr %54, align 8, !tbaa !32
  %56 = getelementptr inbounds double, ptr %55, i64 0
  store double %50, ptr %56, align 8, !tbaa !24
  %57 = load double, ptr %10, align 8, !tbaa !24
  %58 = fneg double %57
  %59 = load ptr, ptr %7, align 8, !tbaa !12
  %60 = getelementptr inbounds nuw %struct._generic_N_Vector, ptr %59, i32 0, i32 0
  %61 = load ptr, ptr %60, align 8, !tbaa !29
  %62 = getelementptr inbounds nuw %struct._N_VectorContent_Serial, ptr %61, i32 0, i32 2
  %63 = load ptr, ptr %62, align 8, !tbaa !32
  %64 = getelementptr inbounds double, ptr %63, i64 1
  store double %58, ptr %64, align 8, !tbaa !24
  %65 = load double, ptr %14, align 8, !tbaa !24
  %66 = fneg double %65
  %67 = load double, ptr %14, align 8, !tbaa !24
  %68 = fmul double %66, %67
  %69 = load double, ptr %10, align 8, !tbaa !24
  %70 = fmul double %68, %69
  %71 = load double, ptr %11, align 8, !tbaa !24
  %72 = fmul double %70, %71
  %73 = load ptr, ptr %7, align 8, !tbaa !12
  %74 = getelementptr inbounds nuw %struct._generic_N_Vector, ptr %73, i32 0, i32 0
  %75 = load ptr, ptr %74, align 8, !tbaa !29
  %76 = getelementptr inbounds nuw %struct._N_VectorContent_Serial, ptr %75, i32 0, i32 2
  %77 = load ptr, ptr %76, align 8, !tbaa !32
  %78 = getelementptr inbounds double, ptr %77, i64 2
  store double %72, ptr %78, align 8, !tbaa !24
  call void @llvm.lifetime.end.p0(i64 8, ptr %14) #6
  call void @llvm.lifetime.end.p0(i64 8, ptr %13) #6
  call void @llvm.lifetime.end.p0(i64 8, ptr %12) #6
  call void @llvm.lifetime.end.p0(i64 8, ptr %11) #6
  call void @llvm.lifetime.end.p0(i64 8, ptr %10) #6
  call void @llvm.lifetime.end.p0(i64 8, ptr %9) #6
  ret i32 0
}