; Function Attrs: mustprogress nofree norecurse nosync nounwind willreturn memory(readwrite, inaccessiblemem: none) uwtable
define internal noundef i32 @f(double %0, ptr noundef readonly captures(none) %1, ptr noundef readonly captures(none) %2, ptr noundef readonly captures(none) %3) #4 {
  %5 = load double, ptr %3, align 8, !tbaa !8
  %6 = getelementptr inbounds nuw i8, ptr %3, i64 8
  %7 = load double, ptr %6, align 8, !tbaa !11
  %8 = load ptr, ptr %1, align 8, !tbaa !18
  %9 = getelementptr inbounds nuw i8, ptr %8, i64 16
  %10 = load ptr, ptr %9, align 8, !tbaa !21
  %11 = load double, ptr %10, align 8, !tbaa !26
  %12 = getelementptr inbounds nuw i8, ptr %10, i64 8
  %13 = load double, ptr %12, align 8, !tbaa !26
  %14 = getelementptr inbounds nuw i8, ptr %10, i64 16
  %15 = load double, ptr %14, align 8, !tbaa !26
  %16 = fneg double %5
  %17 = fmul double %11, %16
  %18 = fneg double %15
  %19 = tail call double @llvm.fmuladd.f64(double %17, double %11, double %18)
  %20 = load ptr, ptr %2, align 8, !tbaa !18
  %21 = getelementptr inbounds nuw i8, ptr %20, i64 16
  %22 = load ptr, ptr %21, align 8, !tbaa !21
  store double %19, ptr %22, align 8, !tbaa !26
  %23 = fneg double %13
  %24 = getelementptr inbounds nuw i8, ptr %22, i64 8
  store double %23, ptr %24, align 8, !tbaa !26
  %25 = fneg double %7
  %26 = fmul double %7, %25
  %27 = fmul double %26, %13
  %28 = fmul double %27, %15
  %29 = getelementptr inbounds nuw i8, ptr %22, i64 16
  store double %28, ptr %29, align 8, !tbaa !26
  ret i32 0
}